target datalayout = "e-m:e-p270:32:32-p271:32:32-p272:64:64-i64:64-i128:128-f80:128-n8:16:32:64-S128"
target triple = "x86_64-pc-linux-gnu"

%struct.RedisModuleCtx = type { ptr, ptr, ptr, ptr, ptr, i32, i32, i32, ptr, i32, ptr, ptr, ptr, ptr, i64, ptr }
%struct.RedisModuleKey = type { ptr, ptr, ptr, ptr, ptr, i32, %union.anon }
%union.anon = type { %struct.anon }
%struct.anon = type { %struct.listTypeEntry, i64 }
%struct.listTypeEntry = type { ptr, ptr, %struct.quicklistEntry }
%struct.quicklistEntry = type { ptr, ptr, ptr, ptr, i64, i64, i32 }
%struct.redisObject = type { i32, i32, ptr }

; Function Attrs: nounwind uwtable
define dso_local i32 @RM_StringTruncate(ptr noundef %0, i64 noundef %1) #0 {
  %3 = alloca i32, align 4
  %4 = alloca ptr, align 8
  %5 = alloca i64, align 8
  %6 = alloca ptr, align 8
  %7 = alloca i64, align 8
  store ptr %0, ptr %4, align 8, !tbaa !64
  store i64 %1, ptr %5, align 8, !tbaa !5
  %8 = load ptr, ptr %4, align 8, !tbaa !64
  %9 = getelementptr inbounds nuw %struct.RedisModuleKey, ptr %8, i32 0, i32 5
  %10 = load i32, ptr %9, align 8, !tbaa !66
  %11 = and i32 %10, 2
  %12 = icmp ne i32 %11, 0
  br i1 %12, label %14, label %13

13:                                               ; preds = %2
  store i32 1, ptr %3, align 4
  br label %138

14:                                               ; preds = %2
  %15 = load ptr, ptr %4, align 8, !tbaa !64
  %16 = getelementptr inbounds nuw %struct.RedisModuleKey, ptr %15, i32 0, i32 3
  %17 = load ptr, ptr %16, align 8, !tbaa !68
  %18 = icmp ne ptr %17, null
  br i1 %18, label %19, label %27

19:                                               ; preds = %14
  %20 = load ptr, ptr %4, align 8, !tbaa !64
  %21 = getelementptr inbounds nuw %struct.RedisModuleKey, ptr %20, i32 0, i32 3
  %22 = load ptr, ptr %21, align 8, !tbaa !68
  %23 = load i32, ptr %22, align 8
  %24 = and i32 %23, 15
  %25 = icmp ne i32 %24, 0
  br i1 %25, label %26, label %27

26:                                               ; preds = %19
  store i32 1, ptr %3, align 4
  br label %138

27:                                               ; preds = %19, %14
  %28 = load i64, ptr %5, align 8, !tbaa !5
  %29 = icmp ugt i64 %28, 536870912
  br i1 %29, label %30, label %31

30:                                               ; preds = %27
  store i32 1, ptr %3, align 4
  br label %138

31:                                               ; preds = %27
  %32 = load ptr, ptr %4, align 8, !tbaa !64
  %33 = getelementptr inbounds nuw %struct.RedisModuleKey, ptr %32, i32 0, i32 3
  %34 = load ptr, ptr %33, align 8, !tbaa !68
  %35 = icmp eq ptr %34, null
  br i1 %35, label %36, label %40

36:                                               ; preds = %31
  %37 = load i64, ptr %5, align 8, !tbaa !5
  %38 = icmp eq i64 %37, 0
  br i1 %38, label %39, label %40

39:                                               ; preds = %36
  store i32 0, ptr %3, align 4
  br label %138

40:                                               ; preds = %36, %31
  %41 = load ptr, ptr %4, align 8, !tbaa !64
  %42 = getelementptr inbounds nuw %struct.RedisModuleKey, ptr %41, i32 0, i32 3
  %43 = load ptr, ptr %42, align 8, !tbaa !68
  %44 = icmp eq ptr %43, null
  br i1 %44, label %45, label %65

45:                                               ; preds = %40
  call void @llvm.lifetime.start.p0(i64 8, ptr %6) #15
  %46 = load i64, ptr %5, align 8, !tbaa !5
  %47 = call ptr @sdsnewlen(ptr noundef null, i64 noundef %46)
  %48 = call ptr @createObject(i32 noundef 0, ptr noundef %47)
  store ptr %48, ptr %6, align 8, !tbaa !69
  %49 = load ptr, ptr %4, align 8, !tbaa !64
  %50 = getelementptr inbounds nuw %struct.RedisModuleKey, ptr %49, i32 0, i32 0
  %51 = load ptr, ptr %50, align 8, !tbaa !293
  %52 = getelementptr inbounds nuw %struct.RedisModuleCtx, ptr %51, i32 0, i32 2
  %53 = load ptr, ptr %52, align 8, !tbaa !106
  %54 = load ptr, ptr %4, align 8, !tbaa !64
  %55 = getelementptr inbounds nuw %struct.RedisModuleKey, ptr %54, i32 0, i32 1
  %56 = load ptr, ptr %55, align 8, !tbaa !70
  %57 = load ptr, ptr %4, align 8, !tbaa !64
  %58 = getelementptr inbounds nuw %struct.RedisModuleKey, ptr %57, i32 0, i32 2
  %59 = load ptr, ptr %58, align 8, !tbaa !71
  %60 = load ptr, ptr %6, align 8, !tbaa !69
  call void @setKey(ptr noundef %53, ptr noundef %56, ptr noundef %59, ptr noundef %60, i32 noundef 2)
  %61 = load ptr, ptr %6, align 8, !tbaa !69
  %62 = load ptr, ptr %4, align 8, !tbaa !64
  %63 = getelementptr inbounds nuw %struct.RedisModuleKey, ptr %62, i32 0, i32 3
  store ptr %61, ptr %63, align 8, !tbaa !68
  %64 = load ptr, ptr %6, align 8, !tbaa !69
  call void @decrRefCount(ptr noundef %64)
  call void @llvm.lifetime.end.p0(i64 8, ptr %6) #15
  br label %137

65:                                               ; preds = %40
  %66 = load ptr, ptr %4, align 8, !tbaa !64
  %67 = getelementptr inbounds nuw %struct.RedisModuleKey, ptr %66, i32 0, i32 1
  %68 = load ptr, ptr %67, align 8, !tbaa !70
  %69 = load ptr, ptr %4, align 8, !tbaa !64
  %70 = getelementptr inbounds nuw %struct.RedisModuleKey, ptr %69, i32 0, i32 2
  %71 = load ptr, ptr %70, align 8, !tbaa !71
  %72 = load ptr, ptr %4, align 8, !tbaa !64
  %73 = getelementptr inbounds nuw %struct.RedisModuleKey, ptr %72, i32 0, i32 3
  %74 = load ptr, ptr %73, align 8, !tbaa !68
  %75 = call ptr @dbUnshareStringValue(ptr noundef %68, ptr noundef %71, ptr noundef %74)
  %76 = load ptr, ptr %4, align 8, !tbaa !64
  %77 = getelementptr inbounds nuw %struct.RedisModuleKey, ptr %76, i32 0, i32 3
  store ptr %75, ptr %77, align 8, !tbaa !68
  call void @llvm.lifetime.start.p0(i64 8, ptr %7) #15
  %78 = load ptr, ptr %4, align 8, !tbaa !64
  %79 = getelementptr inbounds nuw %struct.RedisModuleKey, ptr %78, i32 0, i32 3
  %80 = load ptr, ptr %79, align 8, !tbaa !68
  %81 = getelementptr inbounds nuw %struct.redisObject, ptr %80, i32 0, i32 2
  %82 = load ptr, ptr %81, align 8, !tbaa !313
  %83 = call i64 @sdslen(ptr noundef %82)
  store i64 %83, ptr %7, align 8, !tbaa !5
  %84 = load i64, ptr %5, align 8, !tbaa !5
  %85 = load i64, ptr %7, align 8, !tbaa !5
  %86 = icmp ugt i64 %84, %85
  br i1 %86, label %87, label %99

87:                                               ; preds = %65
  %88 = load ptr, ptr %4, align 8, !tbaa !64
  %89 = getelementptr inbounds nuw %struct.RedisModuleKey, ptr %88, i32 0, i32 3
  %90 = load ptr, ptr %89, align 8, !tbaa !68
  %91 = getelementptr inbounds nuw %struct.redisObject, ptr %90, i32 0, i32 2
  %92 = load ptr, ptr %91, align 8, !tbaa !313
  %93 = load i64, ptr %5, align 8, !tbaa !5
  %94 = call ptr @sdsgrowzero(ptr noundef %92, i64 noundef %93)
  %95 = load ptr, ptr %4, align 8, !tbaa !64
  %96 = getelementptr inbounds nuw %struct.RedisModuleKey, ptr %95, i32 0, i32 3
  %97 = load ptr, ptr %96, align 8, !tbaa !68
  %98 = getelementptr inbounds nuw %struct.redisObject, ptr %97, i32 0, i32 2
  store ptr %94, ptr %98, align 8, !tbaa !313
  br label %136

99:                                               ; preds = %65
  %100 = load i64, ptr %5, align 8, !tbaa !5
  %101 = load i64, ptr %7, align 8, !tbaa !5
  %102 = icmp ult i64 %100, %101
  br i1 %102, label %103, label %135

103:                                              ; preds = %99
  %104 = load ptr, ptr %4, align 8, !tbaa !64
  %105 = getelementptr inbounds nuw %struct.RedisModuleKey, ptr %104, i32 0, i32 3
  %106 = load ptr, ptr %105, align 8, !tbaa !68
  %107 = getelementptr inbounds nuw %struct.redisObject, ptr %106, i32 0, i32 2
  %108 = load ptr, ptr %107, align 8, !tbaa !313
  %109 = load i64, ptr %5, align 8, !tbaa !5
  call void @sdssubstr(ptr noundef %108, i64 noundef 0, i64 noundef %109)
  %110 = load ptr, ptr %4, align 8, !tbaa !64
  %111 = getelementptr inbounds nuw %struct.RedisModuleKey, ptr %110, i32 0, i32 3
  %112 = load ptr, ptr %111, align 8, !tbaa !68
  %113 = getelementptr inbounds nuw %struct.redisObject, ptr %112, i32 0, i32 2
  %114 = load ptr, ptr %113, align 8, !tbaa !313
  %115 = call i64 @sdslen(ptr noundef %114)
  %116 = load ptr, ptr %4, align 8, !tbaa !64
  %117 = getelementptr inbounds nuw %struct.RedisModuleKey, ptr %116, i32 0, i32 3
  %118 = load ptr, ptr %117, align 8, !tbaa !68
  %119 = getelementptr inbounds nuw %struct.redisObject, ptr %118, i32 0, i32 2
  %120 = load ptr, ptr %119, align 8, !tbaa !313
  %121 = call i64 @sdsavail(ptr noundef %120)
  %122 = icmp ult i64 %115, %121
  br i1 %122, label %123, label %134

123:                                              ; preds = %103
  %124 = load ptr, ptr %4, align 8, !tbaa !64
  %125 = getelementptr inbounds nuw %struct.RedisModuleKey, ptr %124, i32 0, i32 3
  %126 = load ptr, ptr %125, align 8, !tbaa !68
  %127 = getelementptr inbounds nuw %struct.redisObject, ptr %126, i32 0, i32 2
  %128 = load ptr, ptr %127, align 8, !tbaa !313
  %129 = call ptr @sdsRemoveFreeSpace(ptr noundef %128, i32 noundef 0)
  %130 = load ptr, ptr %4, align 8, !tbaa !64
  %131 = getelementptr inbounds nuw %struct.RedisModuleKey, ptr %130, i32 0, i32 3
  %132 = load ptr, ptr %131, align 8, !tbaa !68
  %133 = getelementptr inbounds nuw %struct.redisObject, ptr %132, i32 0, i32 2
  store ptr %129, ptr %133, align 8, !tbaa !313
  br label %134

134:                                              ; preds = %123, %103
  br label %135

135:                                              ; preds = %134, %99
  br label %136

136:                                              ; preds = %135, %87
  call void @llvm.lifetime.end.p0(i64 8, ptr %7) #15
  br label %137

137:                                              ; preds = %136, %45
  store i32 0, ptr %3, align 4
  br label %138

138:                                              ; preds = %137, %39, %30, %26, %13
  %139 = load i32, ptr %3, align 4
  ret i32 %139
}