; Function Attrs: nounwind uwtable
define dso_local range(i32 0, 2) i32 @RM_StringTruncate(ptr noundef captures(none) %0, i64 noundef %1) #0 {
  %3 = getelementptr inbounds nuw i8, ptr %0, i64 40
  %4 = load i32, ptr %3, align 8, !tbaa !55
  %5 = and i32 %4, 2
  %.not = icmp eq i32 %5, 0
  br i1 %.not, label %74, label %6

6:                                                ; preds = %2
  %7 = getelementptr inbounds nuw i8, ptr %0, i64 24
  %8 = load ptr, ptr %7, align 8, !tbaa !57
  %.not38 = icmp eq ptr %8, null
  br i1 %.not38, label %13, label %9

9:                                                ; preds = %6
  %10 = load i32, ptr %8, align 8
  %11 = and i32 %10, 15
  %.not39 = icmp ne i32 %11, 0
  %12 = icmp ugt i64 %1, 536870912
  %or.cond40 = or i1 %12, %.not39
  br i1 %or.cond40, label %74, label %26

13:                                               ; preds = %6
  %.old = icmp ugt i64 %1, 536870912
  br i1 %.old, label %74, label %14

14:                                               ; preds = %13
  %15 = icmp eq i64 %1, 0
  br i1 %15, label %74, label %16

16:                                               ; preds = %14
  %17 = tail call ptr @sdsnewlen(ptr noundef null, i64 noundef %1) #35
  %18 = tail call ptr @createObject(i32 noundef 0, ptr noundef %17) #35
  %19 = load ptr, ptr %0, align 8, !tbaa !101
  %20 = getelementptr inbounds nuw i8, ptr %19, i64 16
  %21 = load ptr, ptr %20, align 8, !tbaa !95
  %22 = getelementptr inbounds nuw i8, ptr %0, i64 8
  %23 = load ptr, ptr %22, align 8, !tbaa !58
  %24 = getelementptr inbounds nuw i8, ptr %0, i64 16
  %25 = load ptr, ptr %24, align 8, !tbaa !59
  tail call void @setKey(ptr noundef %21, ptr noundef %23, ptr noundef %25, ptr noundef %18, i32 noundef 2) #35
  store ptr %18, ptr %7, align 8, !tbaa !57
  tail call void @decrRefCount(ptr noundef %18) #35
  br label %74

26:                                               ; preds = %9
  %27 = getelementptr inbounds nuw i8, ptr %0, i64 8
  %28 = load ptr, ptr %27, align 8, !tbaa !58
  %29 = getelementptr inbounds nuw i8, ptr %0, i64 16
  %30 = load ptr, ptr %29, align 8, !tbaa !59
  %31 = tail call ptr @dbUnshareStringValue(ptr noundef %28, ptr noundef %30, ptr noundef nonnull %8) #35
  store ptr %31, ptr %7, align 8, !tbaa !57
  %32 = getelementptr inbounds nuw i8, ptr %31, i64 8
  %33 = load ptr, ptr %32, align 8, !tbaa !269
  %34 = getelementptr inbounds i8, ptr %33, i64 -1
  %35 = load i8, ptr %34, align 1, !tbaa !60
  %36 = zext i8 %35 to i32
  %37 = and i32 %36, 7
  switch i32 %37, label %sdslen.exit [
    i32 0, label %38
    i32 1, label %41
    i32 2, label %45
    i32 3, label %49
    i32 4, label %53
  ]

38:                                               ; preds = %26
  %39 = lshr i32 %36, 3
  %40 = zext nneg i32 %39 to i64
  br label %sdslen.exit

41:                                               ; preds = %26
  %42 = getelementptr inbounds i8, ptr %33, i64 -3
  %43 = load i8, ptr %42, align 1, !tbaa !60
  %44 = zext i8 %43 to i64
  br label %sdslen.exit

45:                                               ; preds = %26
  %46 = getelementptr inbounds i8, ptr %33, i64 -5
  %47 = load i16, ptr %46, align 1, !tbaa !270
  %48 = zext i16 %47 to i64
  br label %sdslen.exit

49:                                               ; preds = %26
  %50 = getelementptr inbounds i8, ptr %33, i64 -9
  %51 = load i32, ptr %50, align 1, !tbaa !22
  %52 = zext i32 %51 to i64
  br label %sdslen.exit

53:                                               ; preds = %26
  %54 = getelementptr inbounds i8, ptr %33, i64 -17
  %55 = load i64, ptr %54, align 1, !tbaa !24
  br label %sdslen.exit

sdslen.exit:                                      ; preds = %26, %38, %41, %45, %49, %53
  %.0.i = phi i64 [ %55, %53 ], [ %52, %49 ], [ %48, %45 ], [ %44, %41 ], [ %40, %38 ], [ 0, %26 ]
  %56 = icmp ugt i64 %1, %.0.i
  br i1 %56, label %57, label %61

57:                                               ; preds = %sdslen.exit
  %58 = tail call ptr @sdsgrowzero(ptr noundef nonnull %33, i64 noundef %1) #35
  %59 = load ptr, ptr %7, align 8, !tbaa !57
  %60 = getelementptr inbounds nuw i8, ptr %59, i64 8
  store ptr %58, ptr %60, align 8, !tbaa !269
  br label %74

61:                                               ; preds = %sdslen.exit
  %62 = icmp ult i64 %1, %.0.i
  br i1 %62, label %63, label %74

63:                                               ; preds = %61
  tail call void @sdssubstr(ptr noundef nonnull %33, i64 noundef 0, i64 noundef %1) #35
  %64 = load ptr, ptr %7, align 8, !tbaa !57
  %65 = getelementptr inbounds nuw i8, ptr %64, i64 8
  %66 = load ptr, ptr %65, align 8, !tbaa !269
  %67 = tail call fastcc i64 @sdslen(ptr noundef %66)
  %68 = tail call fastcc i64 @sdsavail(ptr noundef %66)
  %69 = icmp ult i64 %67, %68
  br i1 %69, label %70, label %74

70:                                               ; preds = %63
  %71 = tail call ptr @sdsRemoveFreeSpace(ptr noundef %66, i32 noundef 0) #35
  %72 = load ptr, ptr %7, align 8, !tbaa !57
  %73 = getelementptr inbounds nuw i8, ptr %72, i64 8
  store ptr %71, ptr %73, align 8, !tbaa !269
  br label %74

74:                                               ; preds = %16, %61, %70, %63, %57, %14, %13, %9, %2
  %.0 = phi i32 [ 1, %2 ], [ 1, %9 ], [ 1, %13 ], [ 0, %14 ], [ 0, %57 ], [ 0, %63 ], [ 0, %70 ], [ 0, %61 ], [ 0, %16 ]
  ret i32 %.0
}